; Function Attrs: mustprogress uwtable
define dso_local noundef i64 @_ZNK4i18n12phonenumbers11StringPiece5rfindERKS1_m(ptr noundef nonnull readonly align 8 captures(none) dereferenceable(16) %0, ptr noundef nonnull readonly align 8 captures(none) dereferenceable(16) %1, i64 noundef %2) local_unnamed_addr #0 align 2 {
  %4 = alloca %"class.std::reverse_iterator", align 8
  %5 = alloca %"class.std::reverse_iterator", align 8
  %6 = alloca %"class.std::reverse_iterator", align 8
  %7 = alloca %"class.std::reverse_iterator", align 8
  %8 = alloca %"class.std::reverse_iterator", align 8
  %9 = getelementptr inbounds nuw i8, ptr %0, i64 8
  %10 = load i64, ptr %9, align 8, !tbaa !11
  %11 = getelementptr inbounds nuw i8, ptr %1, i64 8
  %12 = load i64, ptr %11, align 8, !tbaa !11
  %13 = icmp ult i64 %10, %12
  br i1 %13, label %31, label %14

14:                                               ; preds = %3
  %15 = icmp eq i64 %12, 0
  br i1 %15, label %16, label %_ZSt8find_endIPKcS1_ET_S2_S2_T0_S3_.exit

16:                                               ; preds = %14
  %.sroa.speculated17 = tail call i64 @llvm.umin.i64(i64 %2, i64 %10)
  br label %31

_ZSt8find_endIPKcS1_ET_S2_S2_T0_S3_.exit:         ; preds = %14
  %17 = load ptr, ptr %0, align 8, !tbaa !4
  %18 = sub i64 %10, %12
  %.sroa.speculated = tail call i64 @llvm.umin.i64(i64 %2, i64 %18)
  %19 = getelementptr inbounds nuw i8, ptr %17, i64 %.sroa.speculated
  %20 = getelementptr inbounds nuw i8, ptr %19, i64 %12
  %21 = load ptr, ptr %1, align 8, !tbaa !4
  %22 = getelementptr inbounds nuw i8, ptr %21, i64 %12
  call void @llvm.lifetime.start.p0(i64 8, ptr nonnull %5)
  call void @llvm.lifetime.start.p0(i64 8, ptr nonnull %6)
  call void @llvm.lifetime.start.p0(i64 8, ptr nonnull %7)
  call void @llvm.lifetime.start.p0(i64 8, ptr nonnull %8)
  call void @llvm.lifetime.start.p0(i64 8, ptr nonnull %4) #13
  store ptr %20, ptr %5, align 8, !tbaa !18
  store ptr %17, ptr %6, align 8, !tbaa !18
  store ptr %22, ptr %7, align 8, !tbaa !18
  store ptr %21, ptr %8, align 8, !tbaa !18
  call void @_ZSt8__searchISt16reverse_iteratorIPKcES3_N9__gnu_cxx5__ops19_Iter_equal_to_iterEET_S7_S7_T0_S8_T1_(ptr dead_on_unwind nonnull writable sret(%"class.std::reverse_iterator") align 8 %4, ptr noundef nonnull %5, ptr noundef nonnull %6, ptr noundef nonnull %7, ptr noundef nonnull %8)
  %23 = load ptr, ptr %4, align 8, !tbaa !18
  %24 = icmp eq ptr %23, %17
  %diff.neg = sub i64 0, %12
  %25 = getelementptr inbounds i8, ptr %23, i64 %diff.neg
  %.0.i.i = select i1 %24, ptr %20, ptr %25
  call void @llvm.lifetime.end.p0(i64 8, ptr nonnull %4) #13
  call void @llvm.lifetime.end.p0(i64 8, ptr nonnull %5)
  call void @llvm.lifetime.end.p0(i64 8, ptr nonnull %6)
  call void @llvm.lifetime.end.p0(i64 8, ptr nonnull %7)
  call void @llvm.lifetime.end.p0(i64 8, ptr nonnull %8)
  %.not = icmp eq ptr %.0.i.i, %20
  %26 = load ptr, ptr %0, align 8
  %27 = ptrtoint ptr %.0.i.i to i64
  %28 = ptrtoint ptr %26 to i64
  %29 = sub i64 %27, %28
  %30 = select i1 %.not, i64 -1, i64 %29
  br label %31

31:                                               ; preds = %3, %_ZSt8find_endIPKcS1_ET_S2_S2_T0_S3_.exit, %16
  %.0 = phi i64 [ %.sroa.speculated17, %16 ], [ %30, %_ZSt8find_endIPKcS1_ET_S2_S2_T0_S3_.exit ], [ -1, %3 ]
  ret i64 %.0
}